target datalayout = "e-m:e-p270:32:32-p271:32:32-p272:64:64-i64:64-i128:128-f80:128-n8:16:32:64-S128"
target triple = "x86_64-pc-linux-gnu"

%"class.llvm::StringRef" = type { ptr, i64 }
%"class.llvm::Module" = type <{ ptr, %"class.llvm::SymbolTableList", %"class.llvm::SymbolTableList.0", %"class.llvm::SymbolTableList.9", %"class.llvm::SymbolTableList.18", %"class.llvm::iplist", %"class.std::__cxx11::basic_string", %"class.std::unique_ptr", %"class.llvm::StringMap", %"class.std::unique_ptr.36", %"class.std::unique_ptr.44", %"class.std::__cxx11::basic_string", %"class.std::__cxx11::basic_string", %"class.std::__cxx11::basic_string", %"class.llvm::StringMap.52", %"class.llvm::DataLayout", %"class.llvm::StringMap.73", %"class.llvm::DenseMap", ptr, i8, [7 x i8] }>
%"class.llvm::SymbolTableList" = type { %"class.llvm::iplist_impl" }
%"class.llvm::iplist_impl" = type { %"class.llvm::simple_ilist" }
%"class.llvm::simple_ilist" = type { %"class.llvm::ilist_sentinel" }
%"class.llvm::ilist_sentinel" = type { %"class.llvm::ilist_node_impl" }
%"class.llvm::ilist_node_impl" = type { %"class.llvm::ilist_node_base" }
%"class.llvm::ilist_node_base" = type { %"class.llvm::ilist_detail::node_base_prevnext" }
%"class.llvm::ilist_detail::node_base_prevnext" = type { ptr, ptr }
%"class.llvm::SymbolTableList.0" = type { %"class.llvm::iplist_impl.1" }
%"class.llvm::iplist_impl.1" = type { %"class.llvm::simple_ilist.4" }
%"class.llvm::simple_ilist.4" = type { %"class.llvm::ilist_sentinel.6" }
%"class.llvm::ilist_sentinel.6" = type { %"class.llvm::ilist_node_impl.7" }
%"class.llvm::ilist_node_impl.7" = type { %"class.llvm::ilist_node_base" }
%"class.llvm::SymbolTableList.9" = type { %"class.llvm::iplist_impl.10" }
%"class.llvm::iplist_impl.10" = type { %"class.llvm::simple_ilist.13" }
%"class.llvm::simple_ilist.13" = type { %"class.llvm::ilist_sentinel.15" }
%"class.llvm::ilist_sentinel.15" = type { %"class.llvm::ilist_node_impl.16" }
%"class.llvm::ilist_node_impl.16" = type { %"class.llvm::ilist_node_base" }
%"class.llvm::SymbolTableList.18" = type { %"class.llvm::iplist_impl.19" }
%"class.llvm::iplist_impl.19" = type { %"class.llvm::simple_ilist.22" }
%"class.llvm::simple_ilist.22" = type { %"class.llvm::ilist_sentinel.24" }
%"class.llvm::ilist_sentinel.24" = type { %"class.llvm::ilist_node_impl.25" }
%"class.llvm::ilist_node_impl.25" = type { %"class.llvm::ilist_node_base" }
%"class.llvm::iplist" = type { %"class.llvm::iplist_impl.27" }
%"class.llvm::iplist_impl.27" = type { %"class.llvm::simple_ilist.29" }
%"class.llvm::simple_ilist.29" = type { %"class.llvm::ilist_sentinel.31" }
%"class.llvm::ilist_sentinel.31" = type { %"class.llvm::ilist_node_impl.32" }
%"class.llvm::ilist_node_impl.32" = type { %"class.llvm::ilist_node_base" }
%"class.std::unique_ptr" = type { %"struct.std::__uniq_ptr_data" }
%"struct.std::__uniq_ptr_data" = type { %"class.std::__uniq_ptr_impl" }
%"class.std::__uniq_ptr_impl" = type { %"class.std::tuple" }
%"class.std::tuple" = type { %"struct.std::_Tuple_impl" }
%"struct.std::_Tuple_impl" = type { %"struct.std::_Head_base.35" }
%"struct.std::_Head_base.35" = type { ptr }
%"class.llvm::StringMap" = type { %"class.llvm::StringMapImpl" }
%"class.llvm::StringMapImpl" = type { ptr, i32, i32, i32, i32 }
%"class.std::unique_ptr.36" = type { %"struct.std::__uniq_ptr_data.37" }
%"struct.std::__uniq_ptr_data.37" = type { %"class.std::__uniq_ptr_impl.38" }
%"class.std::__uniq_ptr_impl.38" = type { %"class.std::tuple.39" }
%"class.std::tuple.39" = type { %"struct.std::_Tuple_impl.40" }
%"struct.std::_Tuple_impl.40" = type { %"struct.std::_Head_base.43" }
%"struct.std::_Head_base.43" = type { ptr }
%"class.std::unique_ptr.44" = type { %"struct.std::__uniq_ptr_data.45" }
%"struct.std::__uniq_ptr_data.45" = type { %"class.std::__uniq_ptr_impl.46" }
%"class.std::__uniq_ptr_impl.46" = type { %"class.std::tuple.47" }
%"class.std::tuple.47" = type { %"struct.std::_Tuple_impl.48" }
%"struct.std::_Tuple_impl.48" = type { %"struct.std::_Head_base.51" }
%"struct.std::_Head_base.51" = type { ptr }
%"class.std::__cxx11::basic_string" = type { %"struct.std::__cxx11::basic_string<char>::_Alloc_hider", i64, %union.anon }
%"struct.std::__cxx11::basic_string<char>::_Alloc_hider" = type { ptr }
%union.anon = type { i64, [8 x i8] }
%"class.llvm::StringMap.52" = type { %"class.llvm::StringMapImpl" }
%"class.llvm::DataLayout" = type { i8, i32, i32, i32, %"struct.llvm::MaybeAlign", %"struct.llvm::MaybeAlign", i32, i32, %"class.llvm::SmallVector", %"class.llvm::SmallVector.53", %"class.llvm::SmallVector.59", %"class.llvm::SmallVector.61", %"class.llvm::SmallVector.63", %"class.std::__cxx11::basic_string", %"struct.llvm::Align", %"struct.llvm::Align", ptr, %"class.llvm::SmallVector.68" }
%"struct.llvm::MaybeAlign" = type { %"class.std::optional" }
%"class.std::optional" = type { %"struct.std::_Optional_base" }
%"struct.std::_Optional_base" = type { %"struct.std::_Optional_payload" }
%"struct.std::_Optional_payload" = type { %"struct.std::_Optional_payload_base" }
%"struct.std::_Optional_payload_base" = type { %"union.std::_Optional_payload_base<llvm::Align>::_Storage", i8 }
%"union.std::_Optional_payload_base<llvm::Align>::_Storage" = type { %"struct.std::_Optional_payload_base<llvm::Align>::_Empty_byte" }
%"struct.std::_Optional_payload_base<llvm::Align>::_Empty_byte" = type { i8 }
%"class.llvm::SmallVector" = type { %"class.llvm::SmallVectorImpl", %"struct.llvm::SmallVectorStorage" }
%"class.llvm::SmallVectorImpl" = type { %"class.llvm::SmallVectorTemplateBase" }
%"class.llvm::SmallVectorTemplateBase" = type { %"class.llvm::SmallVectorTemplateCommon" }
%"class.llvm::SmallVectorTemplateCommon" = type { %"class.llvm::SmallVectorBase" }
%"class.llvm::SmallVectorBase" = type { ptr, i64, i64 }
%"struct.llvm::SmallVectorStorage" = type { [8 x i8] }
%"class.llvm::SmallVector.53" = type { %"class.llvm::SmallVectorImpl.54", %"struct.llvm::SmallVectorStorage.58" }
%"class.llvm::SmallVectorImpl.54" = type { %"class.llvm::SmallVectorTemplateBase.55" }
%"class.llvm::SmallVectorTemplateBase.55" = type { %"class.llvm::SmallVectorTemplateCommon.56" }
%"class.llvm::SmallVectorTemplateCommon.56" = type { %"class.llvm::SmallVectorBase.57" }
%"class.llvm::SmallVectorBase.57" = type { ptr, i32, i32 }
%"struct.llvm::SmallVectorStorage.58" = type { [48 x i8] }
%"class.llvm::SmallVector.59" = type { %"class.llvm::SmallVectorImpl.54", %"struct.llvm::SmallVectorStorage.60" }
%"struct.llvm::SmallVectorStorage.60" = type { [32 x i8] }
%"class.llvm::SmallVector.61" = type { %"class.llvm::SmallVectorImpl.54", %"struct.llvm::SmallVectorStorage.62" }
%"struct.llvm::SmallVectorStorage.62" = type { [80 x i8] }
%"class.llvm::SmallVector.63" = type { %"class.llvm::SmallVectorImpl.64", %"struct.llvm::SmallVectorStorage.67" }
%"class.llvm::SmallVectorImpl.64" = type { %"class.llvm::SmallVectorTemplateBase.65" }
%"class.llvm::SmallVectorTemplateBase.65" = type { %"class.llvm::SmallVectorTemplateCommon.66" }
%"class.llvm::SmallVectorTemplateCommon.66" = type { %"class.llvm::SmallVectorBase.57" }
%"struct.llvm::SmallVectorStorage.67" = type { [128 x i8] }
%"struct.llvm::Align" = type { i8 }
%"class.llvm::SmallVector.68" = type { %"class.llvm::SmallVectorImpl.69", %"struct.llvm::SmallVectorStorage.72" }
%"class.llvm::SmallVectorImpl.69" = type { %"class.llvm::SmallVectorTemplateBase.70" }
%"class.llvm::SmallVectorTemplateBase.70" = type { %"class.llvm::SmallVectorTemplateCommon.71" }
%"class.llvm::SmallVectorTemplateCommon.71" = type { %"class.llvm::SmallVectorBase.57" }
%"struct.llvm::SmallVectorStorage.72" = type { [32 x i8] }
%"class.llvm::StringMap.73" = type { %"class.llvm::StringMapImpl" }
%"class.llvm::DenseMap" = type <{ ptr, i32, i32, i32, [4 x i8] }>
%"class.llvm::ArrayRef.185" = type { ptr, i64 }
%"class.std::initializer_list" = type { ptr, i64 }

@.str = private unnamed_addr constant [27 x i8] c"struct.__tgt_offload_entry\00", align 1

; Function Attrs: mustprogress nounwind uwtable
define linkonce_odr hidden noundef i64 @_ZNKSt16initializer_listIPN4llvm4TypeEE4sizeEv(ptr noundef nonnull align 8 dereferenceable(16) %0) #0 comdat align 2 {
  %2 = alloca ptr, align 8
  store ptr %0, ptr %2, align 8
  %3 = load ptr, ptr %2, align 8
  %4 = getelementptr inbounds nuw %"class.std::initializer_list", ptr %3, i32 0, i32 1
  %5 = load i64, ptr %4, align 8
  ret i64 %5
}

; Function Attrs: mustprogress nounwind uwtable
define linkonce_odr hidden noundef ptr @_ZNKSt16initializer_listIPN4llvm4TypeEE3endEv(ptr noundef nonnull align 8 dereferenceable(16) %0) #0 comdat align 2 {
  %2 = alloca ptr, align 8
  store ptr %0, ptr %2, align 8
  %3 = load ptr, ptr %2, align 8
  %4 = call noundef ptr @_ZNKSt16initializer_listIPN4llvm4TypeEE5beginEv(ptr noundef nonnull align 8 dereferenceable(16) %3) #12
  %5 = call noundef i64 @_ZNKSt16initializer_listIPN4llvm4TypeEE4sizeEv(ptr noundef nonnull align 8 dereferenceable(16) %3) #12
  %6 = getelementptr inbounds ptr, ptr %4, i64 %5
  ret ptr %6
}

; Function Attrs: mustprogress nounwind uwtable
define linkonce_odr hidden noundef ptr @_ZNKSt16initializer_listIPN4llvm4TypeEE5beginEv(ptr noundef nonnull align 8 dereferenceable(16) %0) #0 comdat align 2 {
  %2 = alloca ptr, align 8
  store ptr %0, ptr %2, align 8
  %3 = load ptr, ptr %2, align 8
  %4 = getelementptr inbounds nuw %"class.std::initializer_list", ptr %3, i32 0, i32 0
  %5 = load ptr, ptr %4, align 8
  ret ptr %5
}

; Function Attrs: mustprogress nounwind uwtable
define linkonce_odr hidden void @_ZN4llvm8ArrayRefIPNS_4TypeEEC2ERKSt16initializer_listIS2_E(ptr noundef nonnull align 8 dereferenceable(16) %0, ptr noundef nonnull align 8 dereferenceable(16) %1) unnamed_addr #0 comdat align 2 {
  %3 = alloca ptr, align 8
  %4 = alloca ptr, align 8
  store ptr %0, ptr %3, align 8
  store ptr %1, ptr %4, align 8
  %5 = load ptr, ptr %3, align 8
  %6 = getelementptr inbounds nuw %"class.llvm::ArrayRef.185", ptr %5, i32 0, i32 0
  %7 = load ptr, ptr %4, align 8
  %8 = call noundef ptr @_ZNKSt16initializer_listIPN4llvm4TypeEE5beginEv(ptr noundef nonnull align 8 dereferenceable(16) %7) #12
  %9 = load ptr, ptr %4, align 8
  %10 = call noundef ptr @_ZNKSt16initializer_listIPN4llvm4TypeEE3endEv(ptr noundef nonnull align 8 dereferenceable(16) %9) #12
  %11 = icmp eq ptr %8, %10
  br i1 %11, label %12, label %13

12:                                               ; preds = %2
  br label %16

13:                                               ; preds = %2
  %14 = load ptr, ptr %4, align 8
  %15 = call noundef ptr @_ZNKSt16initializer_listIPN4llvm4TypeEE5beginEv(ptr noundef nonnull align 8 dereferenceable(16) %14) #12
  br label %16

16:                                               ; preds = %13, %12
  %17 = phi ptr [ null, %12 ], [ %15, %13 ]
  store ptr %17, ptr %6, align 8
  %18 = getelementptr inbounds nuw %"class.llvm::ArrayRef.185", ptr %5, i32 0, i32 1
  %19 = load ptr, ptr %4, align 8
  %20 = call noundef i64 @_ZNKSt16initializer_listIPN4llvm4TypeEE4sizeEv(ptr noundef nonnull align 8 dereferenceable(16) %19) #12
  store i64 %20, ptr %18, align 8
  ret void
}

; Function Attrs: mustprogress nounwind uwtable
define linkonce_odr hidden noundef i64 @_ZNSt11char_traitsIcE6lengthEPKc(ptr noundef %0) #0 comdat align 2 {
  %2 = alloca ptr, align 8
  store ptr %0, ptr %2, align 8
  %3 = load ptr, ptr %2, align 8
  %4 = call i64 @strlen(ptr noundef %3) #12
  ret i64 %4
}

; Function Attrs: mustprogress nounwind uwtable
define linkonce_odr hidden noundef ptr @_ZN4llvm10StructType6createIJNS_11PointerTypeENS_11IntegerTypeES3_S3_EEENSt9enable_ifIXsr11are_base_ofINS_4TypeEDpT_EE5valueEPS0_E4typeENS_9StringRefEPS5_DpPS6_(ptr %0, i64 %1, ptr noundef %2, ptr noundef %3, ptr noundef %4, ptr noundef %5, ptr noundef %6) #0 comdat align 2 {
  %8 = alloca %"class.llvm::StringRef", align 8
  %9 = alloca ptr, align 8
  %10 = alloca ptr, align 8
  %11 = alloca ptr, align 8
  %12 = alloca ptr, align 8
  %13 = alloca ptr, align 8
  %14 = alloca %"class.llvm::ArrayRef.185", align 8
  %15 = alloca %"class.std::initializer_list", align 8
  %16 = alloca [5 x ptr], align 8
  %17 = alloca %"class.llvm::StringRef", align 8
  %18 = getelementptr inbounds nuw { ptr, i64 }, ptr %8, i32 0, i32 0
  store ptr %0, ptr %18, align 8
  %19 = getelementptr inbounds nuw { ptr, i64 }, ptr %8, i32 0, i32 1
  store i64 %1, ptr %19, align 8
  store ptr %2, ptr %9, align 8
  store ptr %3, ptr %10, align 8
  store ptr %4, ptr %11, align 8
  store ptr %5, ptr %12, align 8
  store ptr %6, ptr %13, align 8
  %20 = load ptr, ptr %9, align 8
  store ptr %20, ptr %16, align 8
  %21 = getelementptr inbounds ptr, ptr %16, i64 1
  %22 = load ptr, ptr %10, align 8
  store ptr %22, ptr %21, align 8
  %23 = getelementptr inbounds ptr, ptr %16, i64 2
  %24 = load ptr, ptr %11, align 8
  store ptr %24, ptr %23, align 8
  %25 = getelementptr inbounds ptr, ptr %16, i64 3
  %26 = load ptr, ptr %12, align 8
  store ptr %26, ptr %25, align 8
  %27 = getelementptr inbounds ptr, ptr %16, i64 4
  %28 = load ptr, ptr %13, align 8
  store ptr %28, ptr %27, align 8
  %29 = getelementptr inbounds nuw %"class.std::initializer_list", ptr %15, i32 0, i32 0
  store ptr %16, ptr %29, align 8
  %30 = getelementptr inbounds nuw %"class.std::initializer_list", ptr %15, i32 0, i32 1
  store i64 5, ptr %30, align 8
  call void @_ZN4llvm8ArrayRefIPNS_4TypeEEC2ERKSt16initializer_listIS2_E(ptr noundef nonnull align 8 dereferenceable(16) %14, ptr noundef nonnull align 8 dereferenceable(16) %15)
  call void @llvm.memcpy.p0.p0.i64(ptr align 8 %17, ptr align 8 %8, i64 16, i1 false)
  %31 = getelementptr inbounds nuw { ptr, i64 }, ptr %14, i32 0, i32 0
  %32 = load ptr, ptr %31, align 8
  %33 = getelementptr inbounds nuw { ptr, i64 }, ptr %14, i32 0, i32 1
  %34 = load i64, ptr %33, align 8
  %35 = getelementptr inbounds nuw { ptr, i64 }, ptr %17, i32 0, i32 0
  %36 = load ptr, ptr %35, align 8
  %37 = getelementptr inbounds nuw { ptr, i64 }, ptr %17, i32 0, i32 1
  %38 = load i64, ptr %37, align 8
  %39 = call noundef ptr @_ZN4llvm10StructType6createENS_8ArrayRefIPNS_4TypeEEENS_9StringRefEb(ptr %32, i64 %34, ptr %36, i64 %38, i1 noundef zeroext false)
  ret ptr %39
}

; Function Attrs: mustprogress nounwind uwtable
define linkonce_odr hidden noundef nonnull align 8 dereferenceable(512) ptr @_ZNK4llvm6Module13getDataLayoutEv(ptr noundef nonnull align 8 dereferenceable(857) %0) #0 comdat align 2 {
  %2 = alloca ptr, align 8
  store ptr %0, ptr %2, align 8
  %3 = load ptr, ptr %2, align 8
  %4 = getelementptr inbounds nuw %"class.llvm::Module", ptr %3, i32 0, i32 15
  ret ptr %4
}

; Function Attrs: mustprogress nounwind uwtable
define linkonce_odr hidden noundef ptr @_ZN4llvm11PointerType9getUnqualERNS_11LLVMContextE(ptr noundef nonnull align 8 dereferenceable(8) %0) #0 comdat align 2 {
  %2 = alloca ptr, align 8
  store ptr %0, ptr %2, align 8
  %3 = load ptr, ptr %2, align 8
  %4 = call noundef ptr @_ZN4llvm11PointerType3getERNS_11LLVMContextEj(ptr noundef nonnull align 8 dereferenceable(8) %3, i32 noundef 0)
  ret ptr %4
}

; Function Attrs: mustprogress nounwind uwtable
define linkonce_odr hidden void @_ZN4llvm9StringRefC2EPKc(ptr noundef nonnull align 8 dereferenceable(16) %0, ptr noundef %1) unnamed_addr #0 comdat align 2 {
  %3 = alloca ptr, align 8
  %4 = alloca ptr, align 8
  store ptr %0, ptr %3, align 8
  store ptr %1, ptr %4, align 8
  %5 = load ptr, ptr %3, align 8
  %6 = getelementptr inbounds nuw %"class.llvm::StringRef", ptr %5, i32 0, i32 0
  %7 = load ptr, ptr %4, align 8
  store ptr %7, ptr %6, align 8
  %8 = getelementptr inbounds nuw %"class.llvm::StringRef", ptr %5, i32 0, i32 1
  %9 = load ptr, ptr %4, align 8
  %10 = icmp ne ptr %9, null
  br i1 %10, label %11, label %14

11:                                               ; preds = %2
  %12 = load ptr, ptr %4, align 8
  %13 = call noundef i64 @_ZNSt11char_traitsIcE6lengthEPKc(ptr noundef %12)
  br label %15

14:                                               ; preds = %2
  br label %15

15:                                               ; preds = %14, %11
  %16 = phi i64 [ %13, %11 ], [ 0, %14 ]
  store i64 %16, ptr %8, align 8
  ret void
}

; Function Attrs: mustprogress nounwind uwtable
define linkonce_odr hidden noundef nonnull align 8 dereferenceable(8) ptr @_ZNK4llvm6Module10getContextEv(ptr noundef nonnull align 8 dereferenceable(857) %0) #0 comdat align 2 {
  %2 = alloca ptr, align 8
  store ptr %0, ptr %2, align 8
  %3 = load ptr, ptr %2, align 8
  %4 = getelementptr inbounds nuw %"class.llvm::Module", ptr %3, i32 0, i32 0
  %5 = load ptr, ptr %4, align 8
  ret ptr %5
}

; Function Attrs: mustprogress nounwind uwtable
define dso_local noundef ptr @_ZN4llvm10offloading10getEntryTyERNS_6ModuleE(ptr noundef nonnull align 8 dereferenceable(857) %0) #0 {
  %2 = alloca ptr, align 8
  %3 = alloca ptr, align 8
  %4 = alloca ptr, align 8
  %5 = alloca %"class.llvm::StringRef", align 8
  %6 = alloca %"class.llvm::StringRef", align 8
  store ptr %0, ptr %2, align 8
  %7 = load ptr, ptr %2, align 8
  %8 = call noundef nonnull align 8 dereferenceable(8) ptr @_ZNK4llvm6Module10getContextEv(ptr noundef nonnull align 8 dereferenceable(857) %7)
  store ptr %8, ptr %3, align 8
  %9 = load ptr, ptr %3, align 8
  call void @_ZN4llvm9StringRefC2EPKc(ptr noundef nonnull align 8 dereferenceable(16) %5, ptr noundef @.str)
  %10 = getelementptr inbounds nuw { ptr, i64 }, ptr %5, i32 0, i32 0
  %11 = load ptr, ptr %10, align 8
  %12 = getelementptr inbounds nuw { ptr, i64 }, ptr %5, i32 0, i32 1
  %13 = load i64, ptr %12, align 8
  %14 = call noundef ptr @_ZN4llvm10StructType13getTypeByNameERNS_11LLVMContextENS_9StringRefE(ptr noundef nonnull align 8 dereferenceable(8) %9, ptr %11, i64 %13)
  store ptr %14, ptr %4, align 8
  %15 = load ptr, ptr %4, align 8
  %16 = icmp ne ptr %15, null
  br i1 %16, label %35, label %17

17:                                               ; preds = %1
  call void @_ZN4llvm9StringRefC2EPKc(ptr noundef nonnull align 8 dereferenceable(16) %6, ptr noundef @.str)
  %18 = load ptr, ptr %3, align 8
  %19 = call noundef ptr @_ZN4llvm11PointerType9getUnqualERNS_11LLVMContextE(ptr noundef nonnull align 8 dereferenceable(8) %18)
  %20 = load ptr, ptr %3, align 8
  %21 = call noundef ptr @_ZN4llvm11PointerType9getUnqualERNS_11LLVMContextE(ptr noundef nonnull align 8 dereferenceable(8) %20)
  %22 = load ptr, ptr %2, align 8
  %23 = call noundef nonnull align 8 dereferenceable(512) ptr @_ZNK4llvm6Module13getDataLayoutEv(ptr noundef nonnull align 8 dereferenceable(857) %22)
  %24 = load ptr, ptr %3, align 8
  %25 = call noundef ptr @_ZNK4llvm10DataLayout13getIntPtrTypeERNS_11LLVMContextEj(ptr noundef nonnull align 8 dereferenceable(512) %23, ptr noundef nonnull align 8 dereferenceable(8) %24, i32 noundef 0)
  %26 = load ptr, ptr %3, align 8
  %27 = call noundef ptr @_ZN4llvm4Type10getInt32TyERNS_11LLVMContextE(ptr noundef nonnull align 8 dereferenceable(8) %26)
  %28 = load ptr, ptr %3, align 8
  %29 = call noundef ptr @_ZN4llvm4Type10getInt32TyERNS_11LLVMContextE(ptr noundef nonnull align 8 dereferenceable(8) %28)
  %30 = getelementptr inbounds nuw { ptr, i64 }, ptr %6, i32 0, i32 0
  %31 = load ptr, ptr %30, align 8
  %32 = getelementptr inbounds nuw { ptr, i64 }, ptr %6, i32 0, i32 1
  %33 = load i64, ptr %32, align 8
  %34 = call noundef ptr @_ZN4llvm10StructType6createIJNS_11PointerTypeENS_11IntegerTypeES3_S3_EEENSt9enable_ifIXsr11are_base_ofINS_4TypeEDpT_EE5valueEPS0_E4typeENS_9StringRefEPS5_DpPS6_(ptr %31, i64 %33, ptr noundef %19, ptr noundef %21, ptr noundef %25, ptr noundef %27, ptr noundef %29)
  store ptr %34, ptr %4, align 8
  br label %35

35:                                               ; preds = %17, %1
  %36 = load ptr, ptr %4, align 8
  ret ptr %36
}