; Function Attrs: mustprogress nounwind uwtable
define dso_local noundef ptr @_ZN4llvm10offloading10getEntryTyERNS_6ModuleE(ptr noundef nonnull align 8 dereferenceable(857) %0) local_unnamed_addr #0 {
  %2 = alloca [5 x ptr], align 8
  %3 = load ptr, ptr %0, align 8
  %4 = tail call noundef ptr @_ZN4llvm10StructType13getTypeByNameERNS_11LLVMContextENS_9StringRefE(ptr noundef nonnull align 8 dereferenceable(8) %3, ptr nonnull @.str, i64 26) #15
  %.not = icmp eq ptr %4, null
  br i1 %.not, label %5, label %17

5:                                                ; preds = %1
  %6 = tail call noundef ptr @_ZN4llvm11PointerType3getERNS_11LLVMContextEj(ptr noundef nonnull align 8 dereferenceable(8) %3, i32 noundef 0) #15
  %7 = tail call noundef ptr @_ZN4llvm11PointerType3getERNS_11LLVMContextEj(ptr noundef nonnull align 8 dereferenceable(8) %3, i32 noundef 0) #15
  %8 = getelementptr inbounds nuw i8, ptr %0, i64 288
  %9 = tail call noundef ptr @_ZNK4llvm10DataLayout13getIntPtrTypeERNS_11LLVMContextEj(ptr noundef nonnull align 8 dereferenceable(512) %8, ptr noundef nonnull align 8 dereferenceable(8) %3, i32 noundef 0) #15
  %10 = tail call noundef ptr @_ZN4llvm4Type10getInt32TyERNS_11LLVMContextE(ptr noundef nonnull align 8 dereferenceable(8) %3) #15
  %11 = tail call noundef ptr @_ZN4llvm4Type10getInt32TyERNS_11LLVMContextE(ptr noundef nonnull align 8 dereferenceable(8) %3) #15
  call void @llvm.lifetime.start.p0(i64 40, ptr nonnull %2)
  store ptr %6, ptr %2, align 8
  %12 = getelementptr inbounds nuw i8, ptr %2, i64 8
  store ptr %7, ptr %12, align 8
  %13 = getelementptr inbounds nuw i8, ptr %2, i64 16
  store ptr %9, ptr %13, align 8
  %14 = getelementptr inbounds nuw i8, ptr %2, i64 24
  store ptr %10, ptr %14, align 8
  %15 = getelementptr inbounds nuw i8, ptr %2, i64 32
  store ptr %11, ptr %15, align 8
  %16 = call noundef ptr @_ZN4llvm10StructType6createENS_8ArrayRefIPNS_4TypeEEENS_9StringRefEb(ptr nonnull %2, i64 5, ptr nonnull @.str, i64 26, i1 noundef zeroext false) #15
  call void @llvm.lifetime.end.p0(i64 40, ptr nonnull %2)
  br label %17

17:                                               ; preds = %5, %1
  %.0 = phi ptr [ %4, %1 ], [ %16, %5 ]
  ret ptr %.0
}